target datalayout = "e-m:e-p270:32:32-p271:32:32-p272:64:64-i64:64-i128:128-f80:128-n8:16:32:64-S128"
target triple = "x86_64-pc-linux-gnu"

%struct.timeval = type { i64, i64 }
%struct.evhttp = type { %struct.anon.9, %struct.boundq, %struct.httpcbq, %struct.evconq, %struct.evwsq, i32, i32, %struct.vhostsq, %struct.aliasq, ptr, %struct.timeval, %struct.timeval, i64, i64, i32, ptr, i32, ptr, ptr, ptr, ptr, ptr, ptr, ptr, ptr, ptr, ptr }
%struct.anon.9 = type { ptr, ptr }
%struct.boundq = type { ptr, ptr }
%struct.httpcbq = type { ptr, ptr }
%struct.evconq = type { ptr, ptr }
%struct.evwsq = type { ptr, ptr }
%struct.vhostsq = type { ptr, ptr }
%struct.aliasq = type { ptr, ptr }

; Function Attrs: nounwind uwtable
define i32 @evhttp_add_virtual_host(ptr noundef %0, ptr noundef %1, ptr noundef %2) #0 {
  %4 = alloca i32, align 4
  %5 = alloca ptr, align 8
  %6 = alloca ptr, align 8
  %7 = alloca ptr, align 8
  store ptr %0, ptr %5, align 8
  store ptr %1, ptr %6, align 8
  store ptr %2, ptr %7, align 8
  %8 = load ptr, ptr %7, align 8
  %9 = getelementptr inbounds nuw %struct.evhttp, ptr %8, i32 0, i32 9
  %10 = load ptr, ptr %9, align 8
  %11 = icmp ne ptr %10, null
  br i1 %11, label %18, label %12

12:                                               ; preds = %3
  %13 = load ptr, ptr %7, align 8
  %14 = getelementptr inbounds nuw %struct.evhttp, ptr %13, i32 0, i32 1
  %15 = getelementptr inbounds nuw %struct.boundq, ptr %14, i32 0, i32 0
  %16 = load ptr, ptr %15, align 8
  %17 = icmp ne ptr %16, null
  br i1 %17, label %18, label %19

18:                                               ; preds = %12, %3
  store i32 -1, ptr %4, align 4
  br label %53

19:                                               ; preds = %12
  %20 = load ptr, ptr %6, align 8
  %21 = call ptr @event_mm_strdup_(ptr noundef %20)
  %22 = load ptr, ptr %7, align 8
  %23 = getelementptr inbounds nuw %struct.evhttp, ptr %22, i32 0, i32 9
  store ptr %21, ptr %23, align 8
  %24 = load ptr, ptr %7, align 8
  %25 = getelementptr inbounds nuw %struct.evhttp, ptr %24, i32 0, i32 9
  %26 = load ptr, ptr %25, align 8
  %27 = icmp eq ptr %26, null
  br i1 %27, label %28, label %29

28:                                               ; preds = %19
  store i32 -1, ptr %4, align 4
  br label %53

29:                                               ; preds = %19
  br label %30

30:                                               ; preds = %29
  %31 = load ptr, ptr %7, align 8
  %32 = getelementptr inbounds nuw %struct.evhttp, ptr %31, i32 0, i32 0
  %33 = getelementptr inbounds nuw %struct.anon.9, ptr %32, i32 0, i32 0
  store ptr null, ptr %33, align 8
  %34 = load ptr, ptr %5, align 8
  %35 = getelementptr inbounds nuw %struct.evhttp, ptr %34, i32 0, i32 7
  %36 = getelementptr inbounds nuw %struct.vhostsq, ptr %35, i32 0, i32 1
  %37 = load ptr, ptr %36, align 8
  %38 = load ptr, ptr %7, align 8
  %39 = getelementptr inbounds nuw %struct.evhttp, ptr %38, i32 0, i32 0
  %40 = getelementptr inbounds nuw %struct.anon.9, ptr %39, i32 0, i32 1
  store ptr %37, ptr %40, align 8
  %41 = load ptr, ptr %7, align 8
  %42 = load ptr, ptr %5, align 8
  %43 = getelementptr inbounds nuw %struct.evhttp, ptr %42, i32 0, i32 7
  %44 = getelementptr inbounds nuw %struct.vhostsq, ptr %43, i32 0, i32 1
  %45 = load ptr, ptr %44, align 8
  store ptr %41, ptr %45, align 8
  %46 = load ptr, ptr %7, align 8
  %47 = getelementptr inbounds nuw %struct.evhttp, ptr %46, i32 0, i32 0
  %48 = getelementptr inbounds nuw %struct.anon.9, ptr %47, i32 0, i32 0
  %49 = load ptr, ptr %5, align 8
  %50 = getelementptr inbounds nuw %struct.evhttp, ptr %49, i32 0, i32 7
  %51 = getelementptr inbounds nuw %struct.vhostsq, ptr %50, i32 0, i32 1
  store ptr %48, ptr %51, align 8
  br label %52

52:                                               ; preds = %30
  store i32 0, ptr %4, align 4
  br label %53

53:                                               ; preds = %52, %28, %18
  %54 = load i32, ptr %4, align 4
  ret i32 %54
}