; Function Attrs: nounwind uwtable
define range(i32 -1, 1) i32 @evhttp_add_virtual_host(ptr noundef captures(none) %0, ptr noundef %1, ptr noundef %2) local_unnamed_addr #0 {
  %4 = getelementptr inbounds nuw i8, ptr %2, i64 120
  %5 = load ptr, ptr %4, align 8
  %.not = icmp eq ptr %5, null
  br i1 %.not, label %6, label %16

6:                                                ; preds = %3
  %7 = getelementptr inbounds nuw i8, ptr %2, i64 16
  %8 = load ptr, ptr %7, align 8
  %.not12 = icmp eq ptr %8, null
  br i1 %.not12, label %9, label %16

9:                                                ; preds = %6
  %10 = tail call ptr @event_mm_strdup_(ptr noundef %1) #18
  store ptr %10, ptr %4, align 8
  %11 = icmp eq ptr %10, null
  br i1 %11, label %16, label %12

12:                                               ; preds = %9
  store ptr null, ptr %2, align 8
  %13 = getelementptr inbounds nuw i8, ptr %0, i64 96
  %14 = load ptr, ptr %13, align 8
  %15 = getelementptr inbounds nuw i8, ptr %2, i64 8
  store ptr %14, ptr %15, align 8
  store ptr %2, ptr %14, align 8
  store ptr %2, ptr %13, align 8
  br label %16

16:                                               ; preds = %9, %3, %6, %12
  %.0 = phi i32 [ 0, %12 ], [ -1, %6 ], [ -1, %3 ], [ -1, %9 ]
  ret i32 %.0
}